target datalayout = "e-m:e-p270:32:32-p271:32:32-p272:64:64-i64:64-i128:128-f80:128-n8:16:32:64-S128"
target triple = "x86_64-pc-linux-gnu"

%"class.std::__cxx11::basic_string" = type { %"struct.std::__cxx11::basic_string<char>::_Alloc_hider", i64, %union.anon }
%"struct.std::__cxx11::basic_string<char>::_Alloc_hider" = type { ptr }
%union.anon = type { i64, [8 x i8] }
%"class.rocksdb::BlockHandle" = type { i64, i64 }
%"class.rocksdb::PartitionedFilterBlockBuilder" = type <{ %"class.rocksdb::FullFilterBlockBuilder", ptr, i64, i8, [7 x i8], %"class.std::deque", i32, [4 x i8], i64, %"class.rocksdb::Status", %"class.std::__cxx11::basic_string", %"class.rocksdb::BlockBuilder", %"class.rocksdb::BlockBuilder", %"class.rocksdb::BlockHandle", i8, [7 x i8] }>
%"class.rocksdb::FullFilterBlockBuilder" = type { %"class.rocksdb::FilterBlockBuilder", %"class.std::unique_ptr", ptr, i8, %"class.std::unique_ptr.2" }
%"class.rocksdb::FilterBlockBuilder" = type { ptr }
%"class.std::unique_ptr" = type { %"struct.std::__uniq_ptr_data" }
%"struct.std::__uniq_ptr_data" = type { %"class.std::__uniq_ptr_impl" }
%"class.std::__uniq_ptr_impl" = type { %"class.std::tuple" }
%"class.std::tuple" = type { %"struct.std::_Tuple_impl" }
%"struct.std::_Tuple_impl" = type { %"struct.std::_Head_base.1" }
%"struct.std::_Head_base.1" = type { ptr }
%"class.std::unique_ptr.2" = type { %"struct.std::__uniq_ptr_data.3" }
%"struct.std::__uniq_ptr_data.3" = type { %"class.std::__uniq_ptr_impl.4" }
%"class.std::__uniq_ptr_impl.4" = type { %"class.std::tuple.5" }
%"class.std::tuple.5" = type { %"struct.std::_Tuple_impl.6" }
%"struct.std::_Tuple_impl.6" = type { %"struct.std::_Head_base.9" }
%"struct.std::_Head_base.9" = type { ptr }
%"class.std::deque" = type { %"class.std::_Deque_base" }
%"class.std::_Deque_base" = type { %"struct.std::_Deque_base<rocksdb::PartitionedFilterBlockBuilder::FilterEntry, std::allocator<rocksdb::PartitionedFilterBlockBuilder::FilterEntry>>::_Deque_impl" }
%"struct.std::_Deque_base<rocksdb::PartitionedFilterBlockBuilder::FilterEntry, std::allocator<rocksdb::PartitionedFilterBlockBuilder::FilterEntry>>::_Deque_impl" = type { %"struct.std::_Deque_base<rocksdb::PartitionedFilterBlockBuilder::FilterEntry, std::allocator<rocksdb::PartitionedFilterBlockBuilder::FilterEntry>>::_Deque_impl_data" }
%"struct.std::_Deque_base<rocksdb::PartitionedFilterBlockBuilder::FilterEntry, std::allocator<rocksdb::PartitionedFilterBlockBuilder::FilterEntry>>::_Deque_impl_data" = type { ptr, i64, %"struct.std::_Deque_iterator", %"struct.std::_Deque_iterator" }
%"struct.std::_Deque_iterator" = type { ptr, ptr, ptr, ptr }
%"class.rocksdb::Status" = type { i8, i8, i8, i8, i8, i8, %"class.std::unique_ptr.2" }
%"class.rocksdb::BlockBuilder" = type { i32, i8, i8, i64, i8, %"class.std::__cxx11::basic_string", %"class.std::vector.16", i64, i32, i8, %"class.std::__cxx11::basic_string", %"class.rocksdb::DataBlockHashIndexBuilder" }
%"class.std::vector.16" = type { %"struct.std::_Vector_base.17" }
%"struct.std::_Vector_base.17" = type { %"struct.std::_Vector_base<unsigned int, std::allocator<unsigned int>>::_Vector_impl" }
%"struct.std::_Vector_base<unsigned int, std::allocator<unsigned int>>::_Vector_impl" = type { %"struct.std::_Vector_base<unsigned int, std::allocator<unsigned int>>::_Vector_impl_data" }
%"struct.std::_Vector_base<unsigned int, std::allocator<unsigned int>>::_Vector_impl_data" = type { ptr, ptr, ptr }
%"class.rocksdb::DataBlockHashIndexBuilder" = type { double, double, i8, %"class.std::vector.21" }
%"class.std::vector.21" = type { %"struct.std::_Vector_base.22" }
%"struct.std::_Vector_base.22" = type { %"struct.std::_Vector_base<std::pair<unsigned int, unsigned char>, std::allocator<std::pair<unsigned int, unsigned char>>>::_Vector_impl" }
%"struct.std::_Vector_base<std::pair<unsigned int, unsigned char>, std::allocator<std::pair<unsigned int, unsigned char>>>::_Vector_impl" = type { %"struct.std::_Vector_base<std::pair<unsigned int, unsigned char>, std::allocator<std::pair<unsigned int, unsigned char>>>::_Vector_impl_data" }
%"struct.std::_Vector_base<std::pair<unsigned int, unsigned char>, std::allocator<std::pair<unsigned int, unsigned char>>>::_Vector_impl_data" = type { ptr, ptr, ptr }

; Function Attrs: mustprogress nounwind uwtable
define linkonce_odr noundef nonnull align 8 dereferenceable(8) ptr @_ZNSt10_Head_baseILm0EPN7rocksdb17FilterBitsBuilderELb0EE7_M_headERKS3_(ptr noundef nonnull align 8 dereferenceable(8) %0) #4 comdat align 2 {
  %2 = alloca ptr, align 8
  store ptr %0, ptr %2, align 8, !tbaa !686
  %3 = load ptr, ptr %2, align 8, !tbaa !686
  %4 = getelementptr inbounds nuw %"struct.std::_Head_base.1", ptr %3, i32 0, i32 0
  ret ptr %4
}

; Function Attrs: mustprogress nounwind uwtable
define linkonce_odr noundef nonnull align 8 dereferenceable(8) ptr @_ZNSt11_Tuple_implILm0EJPN7rocksdb17FilterBitsBuilderESt14default_deleteIS1_EEE7_M_headERKS5_(ptr noundef nonnull align 8 dereferenceable(8) %0) #4 comdat align 2 {
  %2 = alloca ptr, align 8
  store ptr %0, ptr %2, align 8, !tbaa !684
  %3 = load ptr, ptr %2, align 8, !tbaa !684
  %4 = call noundef nonnull align 8 dereferenceable(8) ptr @_ZNSt10_Head_baseILm0EPN7rocksdb17FilterBitsBuilderELb0EE7_M_headERKS3_(ptr noundef nonnull align 8 dereferenceable(8) %3) #5
  ret ptr %4
}

; Function Attrs: mustprogress nounwind uwtable
define linkonce_odr noundef nonnull align 8 dereferenceable(8) ptr @_ZSt12__get_helperILm0EPN7rocksdb17FilterBitsBuilderEJSt14default_deleteIS1_EEERKT0_RKSt11_Tuple_implIXT_EJS5_DpT1_EE(ptr noundef nonnull align 8 dereferenceable(8) %0) #4 comdat {
  %2 = alloca ptr, align 8
  store ptr %0, ptr %2, align 8, !tbaa !684
  %3 = load ptr, ptr %2, align 8, !tbaa !684
  %4 = call noundef nonnull align 8 dereferenceable(8) ptr @_ZNSt11_Tuple_implILm0EJPN7rocksdb17FilterBitsBuilderESt14default_deleteIS1_EEE7_M_headERKS5_(ptr noundef nonnull align 8 dereferenceable(8) %3) #5
  ret ptr %4
}

; Function Attrs: mustprogress nounwind uwtable
define linkonce_odr noundef nonnull align 8 dereferenceable(8) ptr @_ZSt3getILm0EJPN7rocksdb17FilterBitsBuilderESt14default_deleteIS1_EEERKNSt13tuple_elementIXT_ESt5tupleIJDpT0_EEE4typeERKS9_(ptr noundef nonnull align 8 dereferenceable(8) %0) #4 comdat {
  %2 = alloca ptr, align 8
  store ptr %0, ptr %2, align 8, !tbaa !682
  %3 = load ptr, ptr %2, align 8, !tbaa !682
  %4 = call noundef nonnull align 8 dereferenceable(8) ptr @_ZSt12__get_helperILm0EPN7rocksdb17FilterBitsBuilderEJSt14default_deleteIS1_EEERKT0_RKSt11_Tuple_implIXT_EJS5_DpT1_EE(ptr noundef nonnull align 8 dereferenceable(8) %3) #5
  ret ptr %4
}

; Function Attrs: mustprogress nounwind uwtable
define linkonce_odr noundef ptr @_ZNKSt15__uniq_ptr_implIN7rocksdb17FilterBitsBuilderESt14default_deleteIS1_EE6_M_ptrEv(ptr noundef nonnull align 8 dereferenceable(8) %0) #4 comdat align 2 {
  %2 = alloca ptr, align 8
  store ptr %0, ptr %2, align 8, !tbaa !678
  %3 = load ptr, ptr %2, align 8
  %4 = getelementptr inbounds nuw %"class.std::__uniq_ptr_impl", ptr %3, i32 0, i32 0
  %5 = call noundef nonnull align 8 dereferenceable(8) ptr @_ZSt3getILm0EJPN7rocksdb17FilterBitsBuilderESt14default_deleteIS1_EEERKNSt13tuple_elementIXT_ESt5tupleIJDpT0_EEE4typeERKS9_(ptr noundef nonnull align 8 dereferenceable(8) %4) #5
  %6 = load ptr, ptr %5, align 8, !tbaa !29
  ret ptr %6
}

; Function Attrs: mustprogress nounwind uwtable
define linkonce_odr noundef ptr @_ZNKSt10unique_ptrIN7rocksdb17FilterBitsBuilderESt14default_deleteIS1_EE3getEv(ptr noundef nonnull align 8 dereferenceable(8) %0) #4 comdat align 2 {
  %2 = alloca ptr, align 8
  store ptr %0, ptr %2, align 8, !tbaa !104
  %3 = load ptr, ptr %2, align 8
  %4 = getelementptr inbounds nuw %"class.std::unique_ptr", ptr %3, i32 0, i32 0
  %5 = call noundef ptr @_ZNKSt15__uniq_ptr_implIN7rocksdb17FilterBitsBuilderESt14default_deleteIS1_EE6_M_ptrEv(ptr noundef nonnull align 8 dereferenceable(8) %4) #5
  ret ptr %5
}

; Function Attrs: mustprogress nounwind uwtable
define linkonce_odr noundef ptr @_ZNKSt10unique_ptrIN7rocksdb17FilterBitsBuilderESt14default_deleteIS1_EEptEv(ptr noundef nonnull align 8 dereferenceable(8) %0) #4 comdat align 2 {
  %2 = alloca ptr, align 8
  store ptr %0, ptr %2, align 8, !tbaa !104
  %3 = load ptr, ptr %2, align 8
  %4 = call noundef ptr @_ZNKSt10unique_ptrIN7rocksdb17FilterBitsBuilderESt14default_deleteIS1_EE3getEv(ptr noundef nonnull align 8 dereferenceable(8) %3) #5
  ret ptr %4
}

; Function Attrs: mustprogress uwtable
define noundef i64 @_ZN7rocksdb29PartitionedFilterBlockBuilder20EstimateEntriesAddedEv(ptr noundef nonnull align 8 dereferenceable(577) %0) unnamed_addr #6 align 2 {
  %2 = alloca ptr, align 8
  store ptr %0, ptr %2, align 8, !tbaa !23
  %3 = load ptr, ptr %2, align 8
  %4 = getelementptr inbounds nuw %"class.rocksdb::PartitionedFilterBlockBuilder", ptr %3, i32 0, i32 8
  %5 = load i64, ptr %4, align 8, !tbaa !85
  %6 = getelementptr inbounds nuw %"class.rocksdb::FullFilterBlockBuilder", ptr %3, i32 0, i32 1
  %7 = call noundef ptr @_ZNKSt10unique_ptrIN7rocksdb17FilterBitsBuilderESt14default_deleteIS1_EEptEv(ptr noundef nonnull align 8 dereferenceable(8) %6) #5
  %8 = load ptr, ptr %7, align 8, !tbaa !37
  %9 = getelementptr inbounds ptr, ptr %8, i64 4
  %10 = load ptr, ptr %9, align 8
  %11 = call noundef i64 %10(ptr noundef nonnull align 8 dereferenceable(8) %7)
  %12 = add i64 %5, %11
  ret i64 %12
}