; Function Attrs: mustprogress uwtable
define noundef i64 @_ZN7rocksdb29PartitionedFilterBlockBuilder20EstimateEntriesAddedEv(ptr noundef nonnull readonly align 8 captures(none) dereferenceable(577) %0) unnamed_addr #3 align 2 {
  %2 = getelementptr inbounds nuw i8, ptr %0, i64 152
  %3 = load i64, ptr %2, align 8, !tbaa !125
  %4 = getelementptr inbounds nuw i8, ptr %0, i64 8
  %5 = load ptr, ptr %4, align 8, !tbaa !71
  %6 = load ptr, ptr %5, align 8, !tbaa !11
  %7 = getelementptr inbounds nuw i8, ptr %6, i64 32
  %8 = load ptr, ptr %7, align 8
  %9 = tail call noundef i64 %8(ptr noundef nonnull align 8 dereferenceable(8) %5)
  %10 = add i64 %9, %3
  ret i64 %10
}